(lp0
I0
aF1.0
aF2.0
aF3.0
aF4.0
aF5.0
aF6.0
aF7.0
aF8.0
aF9.0
aF10.0
aF11.0
aF12.0
aF13.0
aF14.0
aF15.0
aF16.0
aF17.0
aF18.0
aF19.0
aF20.0
aF21.0
aF22.0
aF23.0
aF24.0
aF25.0
aF26.0
aF27.0
aF28.0
aF29.0
a.(lp0
F1000.0
aF900.0
aF810.0
aF729.0
aF656.1
aF590.49
aF531.441
aF478.29690000000005
aF430.46721
aF387.42048900000003
aF348.67844010000005
aF313.81059609000005
aF282.429536481
aF254.1865828329
aF228.76792454961
aF205.891132094649
aF185.3020188851841
aF166.7718169966657
aF150.09463529699914
aF135.08517176729924
aF121.57665459056932
aF109.41898913151239
aF98.47709021836116
aF88.62938119652505
aF79.76644307687255
aF71.7897987691853
aF64.61081889226676
aF58.14973700304009
aF52.33476330273608
aF47.10128697246247
a.